; Function Attrs: mustprogress uwtable
define hidden void @_ZN4cvc58internal6theory9datatypes5utils8mkTesterENS0_12NodeTemplateILb1EEEiRKNS0_5DTypeE(ptr dead_on_unwind noalias writable sret(%"class.cvc5::internal::NodeTemplate") align 8 %0, ptr noundef readonly captures(none) %1, i32 noundef %2, ptr noundef nonnull align 8 dereferenceable(448) %3) local_unnamed_addr #3 personality ptr @__gxx_personality_v0 {
  %5 = alloca %"class.cvc5::internal::NodeBuilder", align 8
  %6 = alloca %"class.cvc5::internal::NodeTemplate.16", align 8
  %7 = alloca %"class.cvc5::internal::NodeTemplate.16", align 8
  %8 = alloca %"class.cvc5::internal::NodeTemplate", align 8
  call void @llvm.lifetime.start.p0(i64 8, ptr nonnull %8) #22
  %9 = sext i32 %2 to i64
  %10 = tail call noundef nonnull align 8 dereferenceable(264) ptr @_ZNK4cvc58internal5DTypeixEm(ptr noundef nonnull align 8 dereferenceable(448) %3, i64 noundef %9)
  call void @_ZNK4cvc58internal16DTypeConstructor9getTesterEv(ptr dead_on_unwind nonnull writable sret(%"class.cvc5::internal::NodeTemplate") align 8 %8, ptr noundef nonnull align 8 dereferenceable(264) %10)
  %11 = load ptr, ptr %8, align 8, !tbaa !11
  %12 = load ptr, ptr %1, align 8, !tbaa !11
  call void @llvm.lifetime.start.p0(i64 8, ptr nonnull %6)
  call void @llvm.lifetime.start.p0(i64 8, ptr nonnull %7)
  call void @llvm.lifetime.start.p0(i64 128, ptr nonnull %5) #22, !noalias !56
  %13 = getelementptr inbounds nuw i8, ptr %11, i64 16
  %14 = load ptr, ptr %13, align 8, !tbaa !16, !noalias !56
  invoke void @_ZN4cvc58internal11NodeBuilderC1EPNS0_11NodeManagerENS0_4kind6Kind_tE(ptr noundef nonnull align 8 dereferenceable(124) %5, ptr noundef %14, i32 noundef 226)
          to label %.noexc unwind label %40

.noexc:                                           ; preds = %4
  store ptr %11, ptr %6, align 8, !tbaa !21, !noalias !56
  %15 = invoke noundef nonnull align 8 dereferenceable(124) ptr @_ZN4cvc58internal11NodeBuilderlsENS0_12NodeTemplateILb0EEE(ptr noundef nonnull align 8 dereferenceable(124) %5, ptr noundef nonnull %6)
          to label %16 unwind label %21, !noalias !56

16:                                               ; preds = %.noexc
  store ptr %12, ptr %7, align 8, !tbaa !21, !noalias !56
  %17 = invoke noundef nonnull align 8 dereferenceable(124) ptr @_ZN4cvc58internal11NodeBuilderlsENS0_12NodeTemplateILb0EEE(ptr noundef nonnull align 8 dereferenceable(124) %15, ptr noundef nonnull %7)
          to label %18 unwind label %23, !noalias !56

18:                                               ; preds = %16
  invoke void @_ZN4cvc58internal11NodeBuilder13constructNodeEv(ptr dead_on_unwind writable sret(%"class.cvc5::internal::NodeTemplate") align 8 %0, ptr noundef nonnull align 8 dereferenceable(124) %5)
          to label %26 unwind label %19

19:                                               ; preds = %18
  %20 = landingpad { ptr, i32 }
          cleanup
  br label %25

21:                                               ; preds = %.noexc
  %22 = landingpad { ptr, i32 }
          cleanup
  br label %25

23:                                               ; preds = %16
  %24 = landingpad { ptr, i32 }
          cleanup
  br label %25

25:                                               ; preds = %23, %21, %19
  %.pn5.i = phi { ptr, i32 } [ %20, %19 ], [ %24, %23 ], [ %22, %21 ]
  call void @_ZN4cvc58internal11NodeBuilderD1Ev(ptr noundef nonnull align 8 dereferenceable(124) %5) #22
  call void @llvm.lifetime.end.p0(i64 128, ptr nonnull %5) #22, !noalias !56
  br label %.body

26:                                               ; preds = %18
  call void @_ZN4cvc58internal11NodeBuilderD1Ev(ptr noundef nonnull align 8 dereferenceable(124) %5) #22
  call void @llvm.lifetime.end.p0(i64 128, ptr nonnull %5) #22, !noalias !56
  call void @llvm.lifetime.end.p0(i64 8, ptr nonnull %6)
  call void @llvm.lifetime.end.p0(i64 8, ptr nonnull %7)
  %27 = load ptr, ptr %8, align 8, !tbaa !11
  %28 = load i64, ptr %27, align 8
  %29 = and i64 %28, 1152920405095219200
  %.not.i.i = icmp eq i64 %29, 1152920405095219200
  br i1 %.not.i.i, label %_ZN4cvc58internal12NodeTemplateILb1EED2Ev.exit, label %30, !prof !10

30:                                               ; preds = %26
  %31 = add i64 %28, 1152920405095219200
  %32 = and i64 %31, 1152920405095219200
  %33 = and i64 %28, -1152920405095219201
  %34 = or disjoint i64 %32, %33
  store i64 %34, ptr %27, align 8
  %35 = icmp eq i64 %32, 0
  br i1 %35, label %36, label %_ZN4cvc58internal12NodeTemplateILb1EED2Ev.exit, !prof !10

36:                                               ; preds = %30
  invoke void @_ZN4cvc58internal4expr9NodeValue15markForDeletionEv(ptr noundef nonnull align 8 dereferenceable(24) %27)
          to label %_ZN4cvc58internal12NodeTemplateILb1EED2Ev.exit unwind label %37

37:                                               ; preds = %36
  %38 = landingpad { ptr, i32 }
          catch ptr null
  %39 = extractvalue { ptr, i32 } %38, 0
  call void @__clang_call_terminate(ptr %39) #21
  unreachable

_ZN4cvc58internal12NodeTemplateILb1EED2Ev.exit:   ; preds = %26, %30, %36
  call void @llvm.lifetime.end.p0(i64 8, ptr nonnull %8) #22
  ret void

40:                                               ; preds = %4
  %41 = landingpad { ptr, i32 }
          cleanup
  br label %.body

.body:                                            ; preds = %25, %40
  %eh.lpad-body = phi { ptr, i32 } [ %41, %40 ], [ %.pn5.i, %25 ]
  call void @_ZN4cvc58internal12NodeTemplateILb1EED2Ev(ptr noundef nonnull align 8 dereferenceable(8) %8) #22
  call void @llvm.lifetime.end.p0(i64 8, ptr nonnull %8) #22
  resume { ptr, i32 } %eh.lpad-body
}